; Function Attrs: mustprogress uwtable
define void @_ZN8proxygen11HTTP1xCodec13addDateHeaderERN5folly10IOBufQueueERm(ptr nocapture nonnull readnone align 8 %this, ptr noundef nonnull align 8 dereferenceable(72) %writeBuf, ptr nocapture noundef nonnull align 8 dereferenceable(8) %len) local_unnamed_addr #3 align 2 personality ptr @__gxx_personality_v0 {
entry:
  %ref.tmp = alloca %"class.std::__cxx11::basic_string", align 8
  %0 = load i64, ptr %len, align 8
  %add = add i64 %0, 6
  store i64 %add, ptr %len, align 8
  tail call void @_ZN5folly10IOBufQueue6appendEPKvm(ptr noundef nonnull align 8 dereferenceable(72) %writeBuf, ptr noundef nonnull @.str.7, i64 noundef 6)
  call void @_ZN8proxygen11HTTPMessage16formatDateHeaderB5cxx11Ev(ptr nonnull sret(%"class.std::__cxx11::basic_string") align 8 %ref.tmp)
  %call.i = call noundef ptr @_ZNKSt7__cxx1112basic_stringIcSt11char_traitsIcESaIcEE4dataEv(ptr noundef nonnull align 8 dereferenceable(32) %ref.tmp) #25
  %call3.i = call noundef i64 @_ZNKSt7__cxx1112basic_stringIcSt11char_traitsIcESaIcEE4sizeEv(ptr noundef nonnull align 8 dereferenceable(32) %ref.tmp) #25
  invoke void @_ZN5folly10IOBufQueue6appendEPKvm(ptr noundef nonnull align 8 dereferenceable(72) %writeBuf, ptr noundef %call.i, i64 noundef %call3.i)
          to label %invoke.cont2 unwind label %lpad

invoke.cont2:                                     ; preds = %entry
  %1 = load i64, ptr %len, align 8
  %add.i = add i64 %1, %call3.i
  store i64 %add.i, ptr %len, align 8
  call void @_ZNSt7__cxx1112basic_stringIcSt11char_traitsIcESaIcEED1Ev(ptr noundef nonnull align 8 dereferenceable(32) %ref.tmp) #25
  %2 = load i64, ptr %len, align 8
  %add3 = add i64 %2, 2
  store i64 %add3, ptr %len, align 8
  call void @_ZN5folly10IOBufQueue6appendEPKvm(ptr noundef nonnull align 8 dereferenceable(72) %writeBuf, ptr noundef nonnull @.str.26, i64 noundef 2)
  ret void

lpad:                                             ; preds = %entry
  %3 = landingpad { ptr, i32 }
          cleanup
  call void @_ZNSt7__cxx1112basic_stringIcSt11char_traitsIcESaIcEED1Ev(ptr noundef nonnull align 8 dereferenceable(32) %ref.tmp) #25
  resume { ptr, i32 } %3
}